(dp0
S'xudeng'
p1
(dp2
S'tel'
p3
S'1111'
p4
sS'relationship'
p5
S'\xe5\xae\xb6\xe4\xba\xba'
p6
ssS'zsh'
p7
(dp8
S'tel'
p9
S'22222'
p10
sS'relationship'
p11
S'\xe5\xae\xb6\xe4\xba\xba'
p12
ssS'lijun'
p13
(dp14
S'tel'
p15
S'33333'
p16
sS'relationship'
p17
S'\xe5\x90\x8c\xe4\xba\x8b'
p18
ssS'name'
p19
(dp20
g3
S''
p21
sg5
g21
ss.